target datalayout = "e-m:e-p270:32:32-p271:32:32-p272:64:64-i64:64-i128:128-f80:128-n8:16:32:64-S128"
target triple = "x86_64-unknown-linux-gnu"

%"class.Imf_3_2::RgbaOutputFile" = type { ptr, ptr, ptr }

@_ZTVN7Imf_3_214RgbaOutputFileE = unnamed_addr constant { [4 x ptr] } { [4 x ptr] [ptr null, ptr @_ZTIN7Imf_3_214RgbaOutputFileE, ptr @_ZN7Imf_3_214RgbaOutputFileD1Ev, ptr @_ZN7Imf_3_214RgbaOutputFileD0Ev] }, align 8
@_ZN7Imf_3_214RgbaOutputFile5ToYcaD1Ev = hidden unnamed_addr alias void (ptr), ptr @_ZN7Imf_3_214RgbaOutputFile5ToYcaD2Ev

; Function Attrs: mustprogress nounwind uwtable
define void @_ZN7Imf_3_214RgbaOutputFileD2Ev(ptr noundef nonnull align 8 dereferenceable(24) %this) unnamed_addr #5 align 2 {
entry:
  %this.addr = alloca ptr, align 8
  store ptr %this, ptr %this.addr, align 8
  %this1 = load ptr, ptr %this.addr, align 8
  store ptr getelementptr inbounds ({ [4 x ptr] }, ptr @_ZTVN7Imf_3_214RgbaOutputFileE, i32 0, i32 0, i32 2), ptr %this1, align 8
  %_toYca = getelementptr inbounds %"class.Imf_3_2::RgbaOutputFile", ptr %this1, i32 0, i32 2
  %0 = load ptr, ptr %_toYca, align 8
  %isnull = icmp eq ptr %0, null
  br i1 %isnull, label %delete.end, label %delete.notnull

delete.notnull:                                   ; preds = %entry
  call void @_ZN7Imf_3_214RgbaOutputFile5ToYcaD1Ev(ptr noundef nonnull align 8 dereferenceable(352) %0) #3
  call void @_ZdlPv(ptr noundef %0) #14
  br label %delete.end

delete.end:                                       ; preds = %delete.notnull, %entry
  %_outputFile = getelementptr inbounds %"class.Imf_3_2::RgbaOutputFile", ptr %this1, i32 0, i32 1
  %1 = load ptr, ptr %_outputFile, align 8
  %isnull2 = icmp eq ptr %1, null
  br i1 %isnull2, label %delete.end4, label %delete.notnull3

delete.notnull3:                                  ; preds = %delete.end
  %vtable = load ptr, ptr %1, align 8
  %vfn = getelementptr inbounds ptr, ptr %vtable, i64 1
  %2 = load ptr, ptr %vfn, align 8
  call void %2(ptr noundef nonnull align 8 dereferenceable(16) %1) #3
  br label %delete.end4

delete.end4:                                      ; preds = %delete.notnull3, %delete.end
  ret void
}