; Function Attrs: mustprogress nounwind uwtable
define void @_ZN7Imf_3_214RgbaOutputFileD2Ev(ptr nocapture noundef nonnull align 8 dereferenceable(24) %this) unnamed_addr #6 align 2 {
entry:
  store ptr getelementptr inbounds ({ [4 x ptr] }, ptr @_ZTVN7Imf_3_214RgbaOutputFileE, i64 0, i32 0, i64 2), ptr %this, align 8
  %_toYca = getelementptr inbounds i8, ptr %this, i64 16
  %0 = load ptr, ptr %_toYca, align 8
  %isnull = icmp eq ptr %0, null
  br i1 %isnull, label %delete.end, label %delete.notnull

delete.notnull:                                   ; preds = %entry
  %_bufBase.i = getelementptr inbounds i8, ptr %0, i64 88
  %1 = load ptr, ptr %_bufBase.i, align 8
  %isnull.i = icmp eq ptr %1, null
  br i1 %isnull.i, label %delete.end.i, label %delete.notnull.i

delete.notnull.i:                                 ; preds = %delete.notnull
  tail call void @_ZdaPv(ptr noundef nonnull %1) #24
  br label %delete.end.i

delete.end.i:                                     ; preds = %delete.notnull.i, %delete.notnull
  %_tmpBuf.i = getelementptr inbounds i8, ptr %0, i64 312
  %2 = load ptr, ptr %_tmpBuf.i, align 8
  %isnull2.i = icmp eq ptr %2, null
  br i1 %isnull2.i, label %_ZN7Imf_3_214RgbaOutputFile5ToYcaD2Ev.exit, label %delete.notnull3.i

delete.notnull3.i:                                ; preds = %delete.end.i
  tail call void @_ZdaPv(ptr noundef nonnull %2) #24
  br label %_ZN7Imf_3_214RgbaOutputFile5ToYcaD2Ev.exit

_ZN7Imf_3_214RgbaOutputFile5ToYcaD2Ev.exit:       ; preds = %delete.end.i, %delete.notnull3.i
  tail call void @_ZdlPv(ptr noundef nonnull %0) #24
  br label %delete.end

delete.end:                                       ; preds = %_ZN7Imf_3_214RgbaOutputFile5ToYcaD2Ev.exit, %entry
  %_outputFile = getelementptr inbounds i8, ptr %this, i64 8
  %3 = load ptr, ptr %_outputFile, align 8
  %isnull2 = icmp eq ptr %3, null
  br i1 %isnull2, label %delete.end4, label %delete.notnull3

delete.notnull3:                                  ; preds = %delete.end
  %vtable = load ptr, ptr %3, align 8
  %vfn = getelementptr inbounds i8, ptr %vtable, i64 8
  %4 = load ptr, ptr %vfn, align 8
  tail call void %4(ptr noundef nonnull align 8 dereferenceable(16) %3) #25
  br label %delete.end4

delete.end4:                                      ; preds = %delete.notnull3, %delete.end
  ret void
}